target datalayout = "e-m:e-p270:32:32-p271:32:32-p272:64:64-i64:64-i128:128-f80:128-n8:16:32:64-S128"
target triple = "x86_64-pc-linux-gnu"

%"class.LIEF::MachO::RelocationFixup" = type { %"class.LIEF::MachO::Relocation", i32, i64, i32, i32, %union.anon.38 }
%"class.LIEF::MachO::Relocation" = type { %"class.LIEF::Relocation.base", ptr, i8, i32, ptr, ptr }
%"class.LIEF::Relocation.base" = type <{ %"class.LIEF::Object", i64, i8 }>
%"class.LIEF::Object" = type { ptr }
%union.anon.38 = type { ptr }

; Function Attrs: mustprogress nounwind uwtable
define void @_ZN4LIEF5MachO15RelocationFixupC2ERKS1_(ptr noundef nonnull align 8 dereferenceable(88) %0, ptr noundef nonnull align 8 dereferenceable(88) %1) unnamed_addr #1 align 2 {
  %3 = alloca ptr, align 8
  %4 = alloca ptr, align 8
  store ptr %0, ptr %3, align 8, !tbaa !15
  store ptr %1, ptr %4, align 8, !tbaa !15
  %5 = load ptr, ptr %3, align 8
  %6 = load ptr, ptr %4, align 8, !tbaa !15
  call void @_ZN4LIEF5MachO10RelocationC2ERKS1_(ptr noundef nonnull align 8 dereferenceable(56) %5, ptr noundef nonnull align 8 dereferenceable(56) %6)
  store ptr getelementptr inbounds inrange(-16, 160) ({ [22 x ptr] }, ptr @_ZTVN4LIEF5MachO15RelocationFixupE, i32 0, i32 0, i32 2), ptr %5, align 8, !tbaa !17
  %7 = getelementptr inbounds nuw %"class.LIEF::MachO::RelocationFixup", ptr %5, i32 0, i32 1
  %8 = load ptr, ptr %4, align 8, !tbaa !15
  %9 = getelementptr inbounds nuw %"class.LIEF::MachO::RelocationFixup", ptr %8, i32 0, i32 1
  %10 = load i32, ptr %9, align 8, !tbaa !32
  store i32 %10, ptr %7, align 8, !tbaa !32
  %11 = getelementptr inbounds nuw %"class.LIEF::MachO::RelocationFixup", ptr %5, i32 0, i32 2
  %12 = load ptr, ptr %4, align 8, !tbaa !15
  %13 = getelementptr inbounds nuw %"class.LIEF::MachO::RelocationFixup", ptr %12, i32 0, i32 2
  %14 = load i64, ptr %13, align 8, !tbaa !33
  store i64 %14, ptr %11, align 8, !tbaa !33
  %15 = getelementptr inbounds nuw %"class.LIEF::MachO::RelocationFixup", ptr %5, i32 0, i32 3
  %16 = load ptr, ptr %4, align 8, !tbaa !15
  %17 = getelementptr inbounds nuw %"class.LIEF::MachO::RelocationFixup", ptr %16, i32 0, i32 3
  %18 = load i32, ptr %17, align 8, !tbaa !34
  store i32 %18, ptr %15, align 8, !tbaa !34
  %19 = getelementptr inbounds nuw %"class.LIEF::MachO::RelocationFixup", ptr %5, i32 0, i32 4
  %20 = load ptr, ptr %4, align 8, !tbaa !15
  %21 = getelementptr inbounds nuw %"class.LIEF::MachO::RelocationFixup", ptr %20, i32 0, i32 4
  %22 = load i32, ptr %21, align 4, !tbaa !19
  store i32 %22, ptr %19, align 4, !tbaa !19
  %23 = getelementptr inbounds nuw %"class.LIEF::MachO::RelocationFixup", ptr %5, i32 0, i32 5
  store ptr null, ptr %23, align 8, !tbaa !10
  %24 = getelementptr inbounds nuw %"class.LIEF::MachO::RelocationFixup", ptr %5, i32 0, i32 4
  %25 = load i32, ptr %24, align 4, !tbaa !19
  switch i32 %25, label %51 [
    i32 1, label %26
    i32 2, label %32
    i32 3, label %38
    i32 4, label %44
    i32 0, label %50
  ]

26:                                               ; preds = %2
  %27 = call noalias noundef nonnull ptr @_Znwm(i64 noundef 8) #21
  %28 = load ptr, ptr %4, align 8, !tbaa !15
  %29 = getelementptr inbounds nuw %"class.LIEF::MachO::RelocationFixup", ptr %28, i32 0, i32 5
  %30 = load ptr, ptr %29, align 8, !tbaa !10
  call void @llvm.memcpy.p0.p0.i64(ptr align 8 %27, ptr align 8 %30, i64 8, i1 false), !tbaa.struct !42
  %31 = getelementptr inbounds nuw %"class.LIEF::MachO::RelocationFixup", ptr %5, i32 0, i32 5
  store ptr %27, ptr %31, align 8, !tbaa !10
  br label %51

32:                                               ; preds = %2
  %33 = call noalias noundef nonnull ptr @_Znwm(i64 noundef 8) #21
  %34 = load ptr, ptr %4, align 8, !tbaa !15
  %35 = getelementptr inbounds nuw %"class.LIEF::MachO::RelocationFixup", ptr %34, i32 0, i32 5
  %36 = load ptr, ptr %35, align 8, !tbaa !10
  call void @llvm.memcpy.p0.p0.i64(ptr align 8 %33, ptr align 8 %36, i64 8, i1 false), !tbaa.struct !42
  %37 = getelementptr inbounds nuw %"class.LIEF::MachO::RelocationFixup", ptr %5, i32 0, i32 5
  store ptr %33, ptr %37, align 8, !tbaa !10
  br label %51

38:                                               ; preds = %2
  %39 = call noalias noundef nonnull ptr @_Znwm(i64 noundef 8) #21
  %40 = load ptr, ptr %4, align 8, !tbaa !15
  %41 = getelementptr inbounds nuw %"class.LIEF::MachO::RelocationFixup", ptr %40, i32 0, i32 5
  %42 = load ptr, ptr %41, align 8, !tbaa !10
  call void @llvm.memcpy.p0.p0.i64(ptr align 8 %39, ptr align 8 %42, i64 8, i1 false), !tbaa.struct !42
  %43 = getelementptr inbounds nuw %"class.LIEF::MachO::RelocationFixup", ptr %5, i32 0, i32 5
  store ptr %39, ptr %43, align 8, !tbaa !10
  br label %51

44:                                               ; preds = %2
  %45 = call noalias noundef nonnull ptr @_Znwm(i64 noundef 4) #21
  %46 = load ptr, ptr %4, align 8, !tbaa !15
  %47 = getelementptr inbounds nuw %"class.LIEF::MachO::RelocationFixup", ptr %46, i32 0, i32 5
  %48 = load ptr, ptr %47, align 8, !tbaa !10
  call void @llvm.memcpy.p0.p0.i64(ptr align 4 %45, ptr align 4 %48, i64 4, i1 false), !tbaa.struct !43
  %49 = getelementptr inbounds nuw %"class.LIEF::MachO::RelocationFixup", ptr %5, i32 0, i32 5
  store ptr %45, ptr %49, align 8, !tbaa !10
  br label %51

50:                                               ; preds = %2
  br label %51

51:                                               ; preds = %50, %2, %44, %38, %32, %26
  ret void
}