; Function Attrs: mustprogress nounwind uwtable
define void @_ZN4LIEF5MachO15RelocationFixupC2ERKS1_(ptr noundef nonnull align 8 dereferenceable(88) %0, ptr noundef nonnull align 8 dereferenceable(88) %1) unnamed_addr #1 align 2 {
  tail call void @_ZN4LIEF5MachO10RelocationC2ERKS1_(ptr noundef nonnull align 8 dereferenceable(56) %0, ptr noundef nonnull align 8 dereferenceable(56) %1) #24
  store ptr getelementptr inbounds nuw inrange(-16, 160) (i8, ptr @_ZTVN4LIEF5MachO15RelocationFixupE, i64 16), ptr %0, align 8, !tbaa !3
  %3 = getelementptr inbounds nuw i8, ptr %0, i64 56
  %4 = getelementptr inbounds nuw i8, ptr %1, i64 56
  %5 = load i32, ptr %4, align 8, !tbaa !27
  store i32 %5, ptr %3, align 8, !tbaa !27
  %6 = getelementptr inbounds nuw i8, ptr %0, i64 64
  %7 = getelementptr inbounds nuw i8, ptr %1, i64 64
  %8 = load i64, ptr %7, align 8, !tbaa !28
  store i64 %8, ptr %6, align 8, !tbaa !28
  %9 = getelementptr inbounds nuw i8, ptr %0, i64 72
  %10 = getelementptr inbounds nuw i8, ptr %1, i64 72
  %11 = load i32, ptr %10, align 8, !tbaa !29
  store i32 %11, ptr %9, align 8, !tbaa !29
  %12 = getelementptr inbounds nuw i8, ptr %0, i64 76
  %13 = getelementptr inbounds nuw i8, ptr %1, i64 76
  %14 = load i32, ptr %13, align 4, !tbaa !6
  store i32 %14, ptr %12, align 4, !tbaa !6
  %15 = getelementptr inbounds nuw i8, ptr %0, i64 80
  store ptr null, ptr %15, align 8, !tbaa !21
  switch i32 %14, label %36 [
    i32 1, label %16
    i32 2, label %21
    i32 3, label %26
    i32 4, label %31
  ]

16:                                               ; preds = %2
  %17 = tail call noalias noundef nonnull dereferenceable(8) ptr @_Znwm(i64 noundef 8) #25
  %18 = getelementptr inbounds nuw i8, ptr %1, i64 80
  %19 = load ptr, ptr %18, align 8, !tbaa !21
  %20 = load i64, ptr %19, align 8, !tbaa !21
  store i64 %20, ptr %17, align 8, !tbaa !21
  br label %.sink.split

21:                                               ; preds = %2
  %22 = tail call noalias noundef nonnull dereferenceable(8) ptr @_Znwm(i64 noundef 8) #25
  %23 = getelementptr inbounds nuw i8, ptr %1, i64 80
  %24 = load ptr, ptr %23, align 8, !tbaa !21
  %25 = load i64, ptr %24, align 8, !tbaa !21
  store i64 %25, ptr %22, align 8, !tbaa !21
  br label %.sink.split

26:                                               ; preds = %2
  %27 = tail call noalias noundef nonnull dereferenceable(8) ptr @_Znwm(i64 noundef 8) #25
  %28 = getelementptr inbounds nuw i8, ptr %1, i64 80
  %29 = load ptr, ptr %28, align 8, !tbaa !21
  %30 = load i64, ptr %29, align 8, !tbaa !21
  store i64 %30, ptr %27, align 8, !tbaa !21
  br label %.sink.split

31:                                               ; preds = %2
  %32 = tail call noalias noundef nonnull dereferenceable(4) ptr @_Znwm(i64 noundef 4) #25
  %33 = getelementptr inbounds nuw i8, ptr %1, i64 80
  %34 = load ptr, ptr %33, align 8, !tbaa !21
  %35 = load i32, ptr %34, align 4, !tbaa !21
  store i32 %35, ptr %32, align 4, !tbaa !21
  br label %.sink.split

.sink.split:                                      ; preds = %16, %21, %26, %31
  %.sink = phi ptr [ %32, %31 ], [ %27, %26 ], [ %22, %21 ], [ %17, %16 ]
  store ptr %.sink, ptr %15, align 8, !tbaa !21
  br label %36

36:                                               ; preds = %.sink.split, %2
  ret void
}